; Function Attrs: mustprogress nofree norecurse nosync nounwind willreturn memory(argmem: write) uwtable
define hidden void @_ZN10smt_params12setup_QF_LRAEv(ptr nocapture noundef nonnull writeonly align 8 dereferenceable(800) %this) local_unnamed_addr #6 align 2 {
entry:
  %m_relevancy_lvl = getelementptr inbounds i8, ptr %this, i64 512
  store i32 0, ptr %m_relevancy_lvl, align 8
  %add.ptr = getelementptr inbounds i8, ptr %this, i64 248
  store i8 1, ptr %add.ptr, align 8
  %m_arith_reflect = getelementptr inbounds i8, ptr %this, i64 284
  store i8 0, ptr %m_arith_reflect, align 4
  %m_arith_propagate_eqs = getelementptr inbounds i8, ptr %this, i64 264
  store i8 0, ptr %m_arith_propagate_eqs, align 8
  %m_eliminate_term_ite = getelementptr inbounds i8, ptr %this, i64 50
  store i8 1, ptr %m_eliminate_term_ite, align 2
  %m_nnf_cnf = getelementptr inbounds i8, ptr %this, i64 58
  store i8 0, ptr %m_nnf_cnf, align 2
  %m_phase_selection = getelementptr inbounds i8, ptr %this, i64 552
  store i32 7, ptr %m_phase_selection, align 8
  ret void
}